; Function Attrs: mustprogress uwtable
define hidden void @_ZNK4cvc58internal6theory6Theory15debugPrintFactsEv(ptr nocapture noundef nonnull readonly align 8 dereferenceable(408) %this) local_unnamed_addr #3 align 2 {
entry:
  %0 = load ptr, ptr @_ZN4cvc58internal12TraceChannelE, align 8
  %call2 = tail call noundef nonnull align 8 dereferenceable(8) ptr @_ZStlsISt11char_traitsIcEERSt13basic_ostreamIcT_ES5_PKc(ptr noundef nonnull align 8 dereferenceable(8) %0, ptr noundef nonnull @.str.10)
  %call3 = tail call noundef nonnull align 8 dereferenceable(8) ptr @_ZNSolsEPFRSoS_E(ptr noundef nonnull align 8 dereferenceable(8) %call2, ptr noundef nonnull @_ZSt4endlIcSt11char_traitsIcEERSt13basic_ostreamIT_T0_ES6_)
  %1 = load ptr, ptr @_ZN4cvc58internal12TraceChannelE, align 8
  tail call void @_ZNK4cvc58internal6theory6Theory10printFactsERSo(ptr noundef nonnull align 8 dereferenceable(408) %this, ptr noundef nonnull align 8 dereferenceable(8) %1)
  ret void
}